target datalayout = "e-m:e-p270:32:32-p271:32:32-p272:64:64-i64:64-i128:128-f80:128-n8:16:32:64-S128"
target triple = "x86_64-pc-linux-gnu"

%"class.api::context" = type { %class.tactic_manager, %class.ast_context_params, i8, i8, %class.scoped_ptr, %class.scoped_ptr.12, [8 x i8], %"class.std::mutex", %class.arith_util, %class.bv_util, %"class.datalog::dl_decl_util", %class.fpa_util, %class.seq_util, %"class.recfun::util", %struct.smt_params, %class.ptr_vector.18, %class.ptr_vector.18, %class.ptr_vector.20, %class.ptr_vector.20, %class.ref_vector.22, %class.ref, %class.u_map, %class.svector, i32, i32, i32, i32, i32, i32, i32, i32, i32, ptr, %"class.std::__cxx11::basic_string", i32, ptr, %"class.std::__cxx11::basic_string", i32, %class.ptr_vector.30, %class.sbuffer, ptr, %class.reslimit, %"class.api::pmanager", %class.mpq_manager, %class.scoped_ptr.36 }
%class.tactic_manager = type { %class.map, %class.map.0, %class.map.4, %class.ptr_vector, %class.ptr_vector.8, %class.ptr_vector.10 }
%class.map = type { %class.table2map }
%class.table2map = type { %class.core_hashtable }
%class.core_hashtable = type <{ ptr, i32, i32, i32, [4 x i8] }>
%class.map.0 = type { %class.table2map.1 }
%class.table2map.1 = type { %class.core_hashtable.2 }
%class.core_hashtable.2 = type <{ ptr, i32, i32, i32, [4 x i8] }>
%class.map.4 = type { %class.table2map.5 }
%class.table2map.5 = type { %class.core_hashtable.6 }
%class.core_hashtable.6 = type <{ ptr, i32, i32, i32, [4 x i8] }>
%class.ptr_vector = type { %class.vector }
%class.vector = type { ptr }
%class.ptr_vector.8 = type { %class.vector.9 }
%class.vector.9 = type { ptr }
%class.ptr_vector.10 = type { %class.vector.11 }
%class.vector.11 = type { ptr }
%class.ast_context_params = type { %class.context_params, ptr }
%class.context_params = type { i32, i32, %"class.std::__cxx11::basic_string", %"class.std::__cxx11::basic_string", i8, i8, i8, i8, i8, i8, i8, i8, i8, i8, i8, %"class.std::__cxx11::basic_string" }
%class.scoped_ptr = type { ptr }
%class.scoped_ptr.12 = type { ptr }
%"class.std::mutex" = type { %"class.std::__mutex_base" }
%"class.std::__mutex_base" = type { %union.pthread_mutex_t }
%union.pthread_mutex_t = type { %struct.__pthread_mutex_s }
%struct.__pthread_mutex_s = type { i32, i32, i32, i32, i32, i16, i16, %struct.__pthread_internal_list }
%struct.__pthread_internal_list = type { ptr, ptr }
%class.arith_util = type { ptr, ptr }
%class.bv_util = type { %class.bv_recognizers, ptr, ptr }
%class.bv_recognizers = type { i32 }
%"class.datalog::dl_decl_util" = type <{ ptr, %class.scoped_ptr.13, %class.scoped_ptr.14, i32, [4 x i8] }>
%class.scoped_ptr.13 = type { ptr }
%class.scoped_ptr.14 = type { ptr }
%class.fpa_util = type { ptr, ptr, i32, %class.arith_util, %class.bv_util }
%class.seq_util = type { ptr, ptr, ptr, i32, [4 x i8], %"class.seq_util::str", %"class.seq_util::rex" }
%"class.seq_util::str" = type <{ ptr, ptr, i32, [4 x i8] }>
%"class.seq_util::rex" = type { ptr, ptr, i32, %class.vector.15, %class.ref_vector, %"struct.seq_util::rex::info", %"struct.seq_util::rex::info" }
%class.vector.15 = type { ptr }
%class.ref_vector = type { %class.ref_vector_core }
%class.ref_vector_core = type { %class.ref_manager_wrapper, %class.ptr_vector.16 }
%class.ref_manager_wrapper = type { ptr }
%class.ptr_vector.16 = type { %class.vector.17 }
%class.vector.17 = type { ptr }
%"struct.seq_util::rex::info" = type { i32, i8, i32, i32 }
%"class.recfun::util" = type { ptr, i32, ptr }
%struct.smt_params = type { %struct.preprocessor_params.base, %struct.dyn_ack_params, %struct.qi_params, %struct.theory_arith_params.base, i8, %struct.theory_array_params.base, %struct.theory_bv_params, [4 x i8], %struct.theory_str_params.base, %struct.theory_seq_params, %struct.theory_pb_params.base, %struct.theory_datatype_params, i8, i8, i8, i8, i8, i8, i32, i8, i32, double, double, i32, i32, i32, i32, i32, i8, i32, i32, i32, i32, i32, i32, i8, i32, i8, i8, i8, i8, i8, %class.symbol, i8, i8, i32, i32, i8, i8, i8, i8, i32, i8, i32, i32, double, i8, double, double, i32, i8, i32, i32, double, i32, i32, i32, i32, i32, double, i8, i8, i8, i8, %class.symbol, i8, i8, i8, i8, i8, i8, i32, i8, i8, i8, i8, i8, i8, i8, i8, i8, double, i8, %class.symbol }
%struct.preprocessor_params.base = type <{ %struct.pattern_inference_params.base, %struct.bit_blaster_params, i32, i32, i8, i8, i8, i8, i8, i8, i8, i8, i8, i8, i8, i8, i8, i8, i8, i8, i8, i8, i8 }>
%struct.pattern_inference_params.base = type <{ i8, [3 x i8], i32, i8, i8, [2 x i8], i32, i8, [3 x i8], i32, i32, i8, [3 x i8], i32, i8, i8 }>
%struct.bit_blaster_params = type { i8, i8 }
%struct.dyn_ack_params = type { i32, i8, double, i32, i32, double }
%struct.qi_params = type { %"class.std::__cxx11::basic_string", %"class.std::__cxx11::basic_string", double, double, i32, i32, i8, i32, i32, i8, i8, i32, i8, i8, i8, i8, i32, i32, i32, i8, i32, ptr }
%struct.theory_arith_params.base = type <{ i8, i8, [2 x i8], i32, i8, [3 x i8], i32, i8, [3 x i8], i32, i8, i8, [2 x i8], i32, i32, i8, i8, [2 x i8], i32, i32, i8, [3 x i8], i32, i32, i8, [3 x i8], double, double, i8, [3 x i8], i32, i8, i8, i8, i8, i8, [3 x i8], i32, i8, i8, [2 x i8], i32, i8, [3 x i8], i32, i8, i8, i8, i8, i8, i8, [2 x i8], i32, i8, i8, [2 x i8], i32, i8, [3 x i8], i32, i8, i8, i8 }>
%struct.theory_array_params.base = type <{ i8, i8, [2 x i8], i32, i8, i8, [2 x i8], i32, i8, i8, i8, i8, i32, i8 }>
%struct.theory_bv_params = type { i32, i8, i8, i8, i8, i32, i8, i8, i8, i8, i32 }
%struct.theory_str_params.base = type <{ i8, i8, i8, i8, i8, i8, i8, i8, double, i32, i32, i32, i32, i32, i8, i8 }>
%struct.theory_seq_params = type { i8, i8, i32, i32 }
%struct.theory_pb_params.base = type <{ i32, i8 }>
%struct.theory_datatype_params = type { i32 }
%class.symbol = type { ptr }
%class.ptr_vector.18 = type { %class.vector.19 }
%class.vector.19 = type { ptr }
%class.ptr_vector.20 = type { %class.vector.21 }
%class.vector.21 = type { ptr }
%class.ref_vector.22 = type { %class.ref_vector_core.23 }
%class.ref_vector_core.23 = type { %class.ref_manager_wrapper.24, %class.ptr_vector.18 }
%class.ref_manager_wrapper.24 = type { ptr }
%class.ref = type { ptr }
%class.u_map = type { %class.map.25 }
%class.map.25 = type { %class.table2map.26 }
%class.table2map.26 = type { %class.core_hashtable.27 }
%class.core_hashtable.27 = type <{ ptr, i32, i32, i32, [4 x i8] }>
%class.svector = type { %class.vector.29 }
%class.vector.29 = type { ptr }
%"class.std::__cxx11::basic_string" = type { %"struct.std::__cxx11::basic_string<char>::_Alloc_hider", i64, %union.anon }
%"struct.std::__cxx11::basic_string<char>::_Alloc_hider" = type { ptr }
%union.anon = type { i64, [8 x i8] }
%class.ptr_vector.30 = type { %class.vector.31 }
%class.vector.31 = type { ptr }
%class.sbuffer = type { %class.buffer }
%class.buffer = type { ptr, i32, i32, [16 x i8] }
%class.reslimit = type { %"struct.std::atomic", i8, i64, i64, %class.svector.32, %class.ptr_vector.34 }
%"struct.std::atomic" = type { %"struct.std::__atomic_base" }
%"struct.std::__atomic_base" = type { i32 }
%class.svector.32 = type { %class.vector.33 }
%class.vector.33 = type { ptr }
%class.ptr_vector.34 = type { %class.vector.35 }
%class.vector.35 = type { ptr }
%"class.api::pmanager" = type { %class.mpz_manager, %"class.polynomial::manager" }
%class.mpz_manager = type { %class.small_object_allocator, %"class.std::recursive_mutex", [4 x i8], i32, %class.mpz, %class.mpz }
%class.small_object_allocator = type { [32 x ptr], [32 x ptr], i64 }
%"class.std::recursive_mutex" = type { %"class.std::__recursive_mutex_base" }
%"class.std::__recursive_mutex_base" = type { %union.pthread_mutex_t }
%class.mpz = type { i32, i8, ptr }
%"class.polynomial::manager" = type { ptr }
%class.mpq_manager = type { %class.mpz_manager, %class.mpz, %class.mpz, %class.mpz, %class.mpz, %class.mpq, %class.mpq }
%class.mpq = type { %class.mpz, %class.mpz }
%class.scoped_ptr.36 = type { ptr }

@_ZTI12z3_exception = external constant ptr

; Function Attrs: mustprogress nounwind uwtable
define linkonce_odr hidden void @_ZN3api7context16reset_error_codeEv(ptr noundef nonnull align 8 dereferenceable(3056) %0) #6 comdat align 2 {
  %2 = alloca ptr, align 8
  store ptr %0, ptr %2, align 8, !tbaa !21
  %3 = load ptr, ptr %2, align 8
  %4 = getelementptr inbounds nuw %"class.api::context", ptr %3, i32 0, i32 34
  store i32 0, ptr %4, align 8, !tbaa !23
  ret void
}

; Function Attrs: inlinehint mustprogress nounwind uwtable
define linkonce_odr hidden noundef ptr @_Z4mk_cP11_Z3_context(ptr noundef %0) #7 comdat {
  %2 = alloca ptr, align 8
  store ptr %0, ptr %2, align 8, !tbaa !3
  %3 = load ptr, ptr %2, align 8, !tbaa !3
  ret ptr %3
}

; Function Attrs: mustprogress uwtable
define ptr @Z3_mk_bvsub_no_underflow(ptr noundef %0, ptr noundef %1, ptr noundef %2, i1 noundef zeroext %3) #4 personality ptr @__gxx_personality_v0 {
  %5 = alloca ptr, align 8
  %6 = alloca ptr, align 8
  %7 = alloca ptr, align 8
  %8 = alloca ptr, align 8
  %9 = alloca i8, align 1
  %10 = alloca ptr, align 8
  %11 = alloca i32, align 4
  %12 = alloca ptr, align 8
  %13 = alloca ptr, align 8
  %14 = alloca ptr, align 8
  %15 = alloca ptr, align 8
  %16 = alloca ptr, align 8
  %17 = alloca ptr, align 8
  store ptr %0, ptr %6, align 8, !tbaa !3
  store ptr %1, ptr %7, align 8, !tbaa !177
  store ptr %2, ptr %8, align 8, !tbaa !177
  %18 = zext i1 %3 to i8
  store i8 %18, ptr %9, align 1, !tbaa !183
  %19 = load ptr, ptr %6, align 8, !tbaa !3
  %20 = invoke noundef ptr @_Z4mk_cP11_Z3_context(ptr noundef %19)
          to label %21 unwind label %77

21:                                               ; preds = %4
  invoke void @_ZN3api7context16reset_error_codeEv(ptr noundef nonnull align 8 dereferenceable(3056) %20)
          to label %22 unwind label %77

22:                                               ; preds = %21
  %23 = load i8, ptr %9, align 1, !tbaa !183, !range !19, !noundef !20
  %24 = trunc i8 %23 to i1
  br i1 %24, label %25, label %117

25:                                               ; preds = %22
  call void @llvm.lifetime.start.p0(i64 8, ptr %12) #3
  %26 = load ptr, ptr %6, align 8, !tbaa !3
  %27 = load ptr, ptr %6, align 8, !tbaa !3
  %28 = load ptr, ptr %7, align 8, !tbaa !177
  %29 = invoke ptr @Z3_get_sort(ptr noundef %27, ptr noundef %28)
          to label %30 unwind label %81

30:                                               ; preds = %25
  %31 = invoke ptr @Z3_mk_int(ptr noundef %26, i32 noundef 0, ptr noundef %29)
          to label %32 unwind label %81

32:                                               ; preds = %30
  store ptr %31, ptr %12, align 8, !tbaa !177
  %33 = load ptr, ptr %6, align 8, !tbaa !3
  %34 = load ptr, ptr %12, align 8, !tbaa !177
  invoke void @Z3_inc_ref(ptr noundef %33, ptr noundef %34)
          to label %35 unwind label %81

35:                                               ; preds = %32
  call void @llvm.lifetime.start.p0(i64 8, ptr %13) #3
  %36 = load ptr, ptr %6, align 8, !tbaa !3
  %37 = load ptr, ptr %8, align 8, !tbaa !177
  %38 = invoke ptr @Z3_mk_bvneg(ptr noundef %36, ptr noundef %37)
          to label %39 unwind label %85

39:                                               ; preds = %35
  store ptr %38, ptr %13, align 8, !tbaa !177
  %40 = load ptr, ptr %6, align 8, !tbaa !3
  %41 = load ptr, ptr %13, align 8, !tbaa !177
  invoke void @Z3_inc_ref(ptr noundef %40, ptr noundef %41)
          to label %42 unwind label %85

42:                                               ; preds = %39
  call void @llvm.lifetime.start.p0(i64 8, ptr %14) #3
  %43 = load ptr, ptr %6, align 8, !tbaa !3
  %44 = load ptr, ptr %12, align 8, !tbaa !177
  %45 = load ptr, ptr %8, align 8, !tbaa !177
  %46 = invoke ptr @Z3_mk_bvslt(ptr noundef %43, ptr noundef %44, ptr noundef %45)
          to label %47 unwind label %89

47:                                               ; preds = %42
  store ptr %46, ptr %14, align 8, !tbaa !177
  %48 = load ptr, ptr %6, align 8, !tbaa !3
  %49 = load ptr, ptr %14, align 8, !tbaa !177
  invoke void @Z3_inc_ref(ptr noundef %48, ptr noundef %49)
          to label %50 unwind label %89

50:                                               ; preds = %47
  call void @llvm.lifetime.start.p0(i64 8, ptr %15) #3
  %51 = load ptr, ptr %6, align 8, !tbaa !3
  %52 = load ptr, ptr %7, align 8, !tbaa !177
  %53 = load ptr, ptr %13, align 8, !tbaa !177
  %54 = invoke ptr @Z3_mk_bvadd_no_underflow(ptr noundef %51, ptr noundef %52, ptr noundef %53)
          to label %55 unwind label %93

55:                                               ; preds = %50
  store ptr %54, ptr %15, align 8, !tbaa !177
  %56 = load ptr, ptr %6, align 8, !tbaa !3
  %57 = load ptr, ptr %15, align 8, !tbaa !177
  invoke void @Z3_inc_ref(ptr noundef %56, ptr noundef %57)
          to label %58 unwind label %93

58:                                               ; preds = %55
  call void @llvm.lifetime.start.p0(i64 8, ptr %16) #3
  %59 = load ptr, ptr %6, align 8, !tbaa !3
  %60 = load ptr, ptr %14, align 8, !tbaa !177
  %61 = load ptr, ptr %15, align 8, !tbaa !177
  %62 = invoke ptr @Z3_mk_implies(ptr noundef %59, ptr noundef %60, ptr noundef %61)
          to label %63 unwind label %97

63:                                               ; preds = %58
  store ptr %62, ptr %16, align 8, !tbaa !177
  %64 = load ptr, ptr %6, align 8, !tbaa !3
  %65 = load ptr, ptr %12, align 8, !tbaa !177
  invoke void @Z3_dec_ref(ptr noundef %64, ptr noundef %65)
          to label %66 unwind label %97

66:                                               ; preds = %63
  %67 = load ptr, ptr %6, align 8, !tbaa !3
  %68 = load ptr, ptr %13, align 8, !tbaa !177
  invoke void @Z3_dec_ref(ptr noundef %67, ptr noundef %68)
          to label %69 unwind label %97

69:                                               ; preds = %66
  %70 = load ptr, ptr %6, align 8, !tbaa !3
  %71 = load ptr, ptr %14, align 8, !tbaa !177
  invoke void @Z3_dec_ref(ptr noundef %70, ptr noundef %71)
          to label %72 unwind label %97

72:                                               ; preds = %69
  %73 = load ptr, ptr %6, align 8, !tbaa !3
  %74 = load ptr, ptr %15, align 8, !tbaa !177
  invoke void @Z3_dec_ref(ptr noundef %73, ptr noundef %74)
          to label %75 unwind label %97

75:                                               ; preds = %72
  %76 = load ptr, ptr %16, align 8, !tbaa !177
  store ptr %76, ptr %5, align 8
  call void @llvm.lifetime.end.p0(i64 8, ptr %16) #3
  call void @llvm.lifetime.end.p0(i64 8, ptr %15) #3
  call void @llvm.lifetime.end.p0(i64 8, ptr %14) #3
  call void @llvm.lifetime.end.p0(i64 8, ptr %13) #3
  call void @llvm.lifetime.end.p0(i64 8, ptr %12) #3
  br label %129

77:                                               ; preds = %117, %21, %4
  %78 = landingpad { ptr, i32 }
          catch ptr @_ZTI12z3_exception
  %79 = extractvalue { ptr, i32 } %78, 0
  store ptr %79, ptr %10, align 8
  %80 = extractvalue { ptr, i32 } %78, 1
  store i32 %80, ptr %11, align 4
  br label %105

81:                                               ; preds = %32, %30, %25
  %82 = landingpad { ptr, i32 }
          cleanup
          catch ptr @_ZTI12z3_exception
  %83 = extractvalue { ptr, i32 } %82, 0
  store ptr %83, ptr %10, align 8
  %84 = extractvalue { ptr, i32 } %82, 1
  store i32 %84, ptr %11, align 4
  br label %104

85:                                               ; preds = %39, %35
  %86 = landingpad { ptr, i32 }
          cleanup
          catch ptr @_ZTI12z3_exception
  %87 = extractvalue { ptr, i32 } %86, 0
  store ptr %87, ptr %10, align 8
  %88 = extractvalue { ptr, i32 } %86, 1
  store i32 %88, ptr %11, align 4
  br label %103

89:                                               ; preds = %47, %42
  %90 = landingpad { ptr, i32 }
          cleanup
          catch ptr @_ZTI12z3_exception
  %91 = extractvalue { ptr, i32 } %90, 0
  store ptr %91, ptr %10, align 8
  %92 = extractvalue { ptr, i32 } %90, 1
  store i32 %92, ptr %11, align 4
  br label %102

93:                                               ; preds = %55, %50
  %94 = landingpad { ptr, i32 }
          cleanup
          catch ptr @_ZTI12z3_exception
  %95 = extractvalue { ptr, i32 } %94, 0
  store ptr %95, ptr %10, align 8
  %96 = extractvalue { ptr, i32 } %94, 1
  store i32 %96, ptr %11, align 4
  br label %101

97:                                               ; preds = %72, %69, %66, %63, %58
  %98 = landingpad { ptr, i32 }
          cleanup
          catch ptr @_ZTI12z3_exception
  %99 = extractvalue { ptr, i32 } %98, 0
  store ptr %99, ptr %10, align 8
  %100 = extractvalue { ptr, i32 } %98, 1
  store i32 %100, ptr %11, align 4
  call void @llvm.lifetime.end.p0(i64 8, ptr %16) #3
  br label %101

101:                                              ; preds = %97, %93
  call void @llvm.lifetime.end.p0(i64 8, ptr %15) #3
  br label %102

102:                                              ; preds = %101, %89
  call void @llvm.lifetime.end.p0(i64 8, ptr %14) #3
  br label %103

103:                                              ; preds = %102, %85
  call void @llvm.lifetime.end.p0(i64 8, ptr %13) #3
  br label %104

104:                                              ; preds = %103, %81
  call void @llvm.lifetime.end.p0(i64 8, ptr %12) #3
  br label %105

105:                                              ; preds = %104, %77
  %106 = load i32, ptr %11, align 4
  %107 = call i32 @llvm.eh.typeid.for.p0(ptr @_ZTI12z3_exception) #3
  %108 = icmp eq i32 %106, %107
  br i1 %108, label %109, label %131

109:                                              ; preds = %105
  call void @llvm.lifetime.start.p0(i64 8, ptr %17) #3
  %110 = load ptr, ptr %10, align 8
  %111 = call ptr @__cxa_begin_catch(ptr %110) #3
  store ptr %111, ptr %17, align 8
  %112 = load ptr, ptr %6, align 8, !tbaa !3
  %113 = invoke noundef ptr @_Z4mk_cP11_Z3_context(ptr noundef %112)
          to label %114 unwind label %123

114:                                              ; preds = %109
  %115 = load ptr, ptr %17, align 8, !tbaa !12
  invoke void @_ZN3api7context16handle_exceptionER12z3_exception(ptr noundef nonnull align 8 dereferenceable(3056) %113, ptr noundef nonnull align 8 dereferenceable(8) %115)
          to label %116 unwind label %123

116:                                              ; preds = %114
  store ptr null, ptr %5, align 8
  call void @__cxa_end_catch()
  call void @llvm.lifetime.end.p0(i64 8, ptr %17) #3
  br label %129

117:                                              ; preds = %22
  %118 = load ptr, ptr %6, align 8, !tbaa !3
  %119 = load ptr, ptr %8, align 8, !tbaa !177
  %120 = load ptr, ptr %7, align 8, !tbaa !177
  %121 = invoke ptr @Z3_mk_bvule(ptr noundef %118, ptr noundef %119, ptr noundef %120)
          to label %122 unwind label %77

122:                                              ; preds = %117
  store ptr %121, ptr %5, align 8
  br label %129

123:                                              ; preds = %114, %109
  %124 = landingpad { ptr, i32 }
          cleanup
  %125 = extractvalue { ptr, i32 } %124, 0
  store ptr %125, ptr %10, align 8
  %126 = extractvalue { ptr, i32 } %124, 1
  store i32 %126, ptr %11, align 4
  invoke void @__cxa_end_catch()
          to label %127 unwind label %136

127:                                              ; preds = %123
  call void @llvm.lifetime.end.p0(i64 8, ptr %17) #3
  br label %131

128:                                              ; No predecessors!
  unreachable

129:                                              ; preds = %116, %122, %75
  %130 = load ptr, ptr %5, align 8
  ret ptr %130

131:                                              ; preds = %127, %105
  %132 = load ptr, ptr %10, align 8
  %133 = load i32, ptr %11, align 4
  %134 = insertvalue { ptr, i32 } poison, ptr %132, 0
  %135 = insertvalue { ptr, i32 } %134, i32 %133, 1
  resume { ptr, i32 } %135

136:                                              ; preds = %123
  %137 = landingpad { ptr, i32 }
          catch ptr null
  %138 = extractvalue { ptr, i32 } %137, 0
  call void @__clang_call_terminate(ptr %138) #15
  unreachable
}