; Function Attrs: mustprogress uwtable
define ptr @Z3_mk_bvsub_no_underflow(ptr noundef initializes((1568, 1572)) %0, ptr noundef %1, ptr noundef %2, i1 noundef zeroext %3) local_unnamed_addr #3 personality ptr @__gxx_personality_v0 {
  %5 = getelementptr inbounds nuw i8, ptr %0, i64 1568
  store i32 0, ptr %5, align 8, !tbaa !3
  br i1 %3, label %6, label %44

6:                                                ; preds = %4
  %7 = invoke ptr @Z3_get_sort(ptr noundef nonnull %0, ptr noundef %1)
          to label %8 unwind label %28

8:                                                ; preds = %6
  %9 = invoke ptr @Z3_mk_int(ptr noundef nonnull %0, i32 noundef 0, ptr noundef %7)
          to label %10 unwind label %28

10:                                               ; preds = %8
  invoke void @Z3_inc_ref(ptr noundef nonnull %0, ptr noundef %9)
          to label %11 unwind label %28

11:                                               ; preds = %10
  %12 = invoke ptr @Z3_mk_bvneg(ptr noundef nonnull %0, ptr noundef %2)
          to label %13 unwind label %30

13:                                               ; preds = %11
  invoke void @Z3_inc_ref(ptr noundef nonnull %0, ptr noundef %12)
          to label %14 unwind label %30

14:                                               ; preds = %13
  %15 = invoke ptr @Z3_mk_bvslt(ptr noundef nonnull %0, ptr noundef %9, ptr noundef %2)
          to label %16 unwind label %32

16:                                               ; preds = %14
  invoke void @Z3_inc_ref(ptr noundef nonnull %0, ptr noundef %15)
          to label %17 unwind label %32

17:                                               ; preds = %16
  %18 = invoke ptr @Z3_mk_bvadd_no_underflow(ptr noundef nonnull %0, ptr noundef %1, ptr noundef %12)
          to label %19 unwind label %34

19:                                               ; preds = %17
  invoke void @Z3_inc_ref(ptr noundef nonnull %0, ptr noundef %18)
          to label %20 unwind label %34

20:                                               ; preds = %19
  %21 = invoke ptr @Z3_mk_implies(ptr noundef nonnull %0, ptr noundef %15, ptr noundef %18)
          to label %22 unwind label %36

22:                                               ; preds = %20
  invoke void @Z3_dec_ref(ptr noundef nonnull %0, ptr noundef %9)
          to label %23 unwind label %36

23:                                               ; preds = %22
  invoke void @Z3_dec_ref(ptr noundef nonnull %0, ptr noundef %12)
          to label %24 unwind label %36

24:                                               ; preds = %23
  invoke void @Z3_dec_ref(ptr noundef nonnull %0, ptr noundef %15)
          to label %25 unwind label %36

25:                                               ; preds = %24
  invoke void @Z3_dec_ref(ptr noundef nonnull %0, ptr noundef %18)
          to label %48 unwind label %36

26:                                               ; preds = %44
  %27 = landingpad { ptr, i32 }
          catch ptr @_ZTI12z3_exception
  br label %38

28:                                               ; preds = %10, %8, %6
  %29 = landingpad { ptr, i32 }
          cleanup
          catch ptr @_ZTI12z3_exception
  br label %38

30:                                               ; preds = %13, %11
  %31 = landingpad { ptr, i32 }
          cleanup
          catch ptr @_ZTI12z3_exception
  br label %38

32:                                               ; preds = %16, %14
  %33 = landingpad { ptr, i32 }
          cleanup
          catch ptr @_ZTI12z3_exception
  br label %38

34:                                               ; preds = %19, %17
  %35 = landingpad { ptr, i32 }
          cleanup
          catch ptr @_ZTI12z3_exception
  br label %38

36:                                               ; preds = %25, %24, %23, %22, %20
  %37 = landingpad { ptr, i32 }
          cleanup
          catch ptr @_ZTI12z3_exception
  br label %38

38:                                               ; preds = %28, %32, %36, %34, %30, %26
  %.pn.pn.pn.pn.pn = phi { ptr, i32 } [ %27, %26 ], [ %29, %28 ], [ %31, %30 ], [ %33, %32 ], [ %37, %36 ], [ %35, %34 ]
  %.043 = extractvalue { ptr, i32 } %.pn.pn.pn.pn.pn, 1
  %39 = tail call i32 @llvm.eh.typeid.for.p0(ptr nonnull @_ZTI12z3_exception) #15
  %40 = icmp eq i32 %.043, %39
  br i1 %40, label %41, label %49

41:                                               ; preds = %38
  %.042 = extractvalue { ptr, i32 } %.pn.pn.pn.pn.pn, 0
  %42 = tail call ptr @__cxa_begin_catch(ptr %.042) #15
  invoke void @_ZN3api7context16handle_exceptionER12z3_exception(ptr noundef nonnull align 8 dereferenceable(3056) %0, ptr noundef nonnull align 8 dereferenceable(8) %42)
          to label %43 unwind label %46

43:                                               ; preds = %41
  tail call void @__cxa_end_catch()
  br label %48

44:                                               ; preds = %4
  %45 = invoke ptr @Z3_mk_bvule(ptr noundef nonnull %0, ptr noundef %2, ptr noundef %1)
          to label %48 unwind label %26

46:                                               ; preds = %41
  %47 = landingpad { ptr, i32 }
          cleanup
  invoke void @__cxa_end_catch()
          to label %49 unwind label %50

48:                                               ; preds = %44, %25, %43
  %.0 = phi ptr [ null, %43 ], [ %21, %25 ], [ %45, %44 ]
  ret ptr %.0

49:                                               ; preds = %46, %38
  %.merged = phi { ptr, i32 } [ %.pn.pn.pn.pn.pn, %38 ], [ %47, %46 ]
  resume { ptr, i32 } %.merged

50:                                               ; preds = %46
  %51 = landingpad { ptr, i32 }
          catch ptr null
  %52 = extractvalue { ptr, i32 } %51, 0
  tail call void @__clang_call_terminate(ptr %52) #16
  unreachable
}